target datalayout = "e-m:e-p270:32:32-p271:32:32-p272:64:64-i64:64-i128:128-f80:128-n8:16:32:64-S128"
target triple = "x86_64-pc-linux-gnu"

%struct.malloc_mutex_s = type { %union.anon }
%union.anon = type { %struct.anon.1 }
%struct.anon.1 = type { %struct.mutex_prof_data_t, %struct.atomic_b_t, %union.pthread_mutex_t }
%struct.mutex_prof_data_t = type { %struct.nstime_t, %struct.nstime_t, i64, i64, i32, %struct.atomic_u32_t, i64, ptr, i64 }
%struct.nstime_t = type { i64 }
%struct.atomic_u32_t = type { i32 }
%struct.atomic_b_t = type { i8 }
%union.pthread_mutex_t = type { %struct.__pthread_mutex_s }
%struct.__pthread_mutex_s = type { i32, i32, i32, i32, i32, i16, i16, %struct.__pthread_internal_list }
%struct.__pthread_internal_list = type { ptr, ptr }
%struct.atomic_zu_t = type { i64 }
%struct.edata_list_active_t = type { %struct.anon.3 }
%struct.anon.3 = type { ptr }
%struct.edata_heap_t = type { %struct.ph_s }
%struct.ph_s = type { ptr, i64 }
%struct.bin_with_batch_s = type { %struct.bin_s, %struct.batcher_s, [16 x %struct.bin_remote_free_data_s] }
%struct.bin_s = type { %struct.malloc_mutex_s, %struct.bin_stats_s, ptr, %struct.edata_heap_t, %struct.edata_list_active_t }
%struct.bin_stats_s = type { i64, i64, i64, i64, i64, i64, i64, i64, i64, i64, i64, i64, i64, i64 }
%struct.batcher_s = type { %struct.atomic_zu_t, i64, i64, %struct.malloc_mutex_s }
%struct.bin_remote_free_data_s = type { ptr, ptr }
%struct.cache_bin_array_descriptor_s = type { %struct.anon.8, ptr }
%struct.anon.8 = type { ptr, ptr }
%struct.cache_bin_s = type { ptr, %struct.cache_bin_stats_s, i16, i16, i16, %struct.cache_bin_info_s }
%struct.cache_bin_stats_s = type { i64 }
%struct.cache_bin_info_s = type { i16 }
%struct.rtree_ctx_s = type { [16 x %struct.rtree_ctx_cache_elm_s], [8 x %struct.rtree_ctx_cache_elm_s] }
%struct.rtree_ctx_cache_elm_s = type { i64, ptr }
%struct.tcache_s = type { ptr, [73 x %struct.cache_bin_s] }
%struct.tsd_binshards_s = type { [36 x i8] }
%struct.tsdn_s = type { %struct.tsd_s }
%struct.tsd_s = type { i8, i8, i8, i64, i64, i64, i64, i64, i64, i64, i64, i64, i64, i64, i64, i64, ptr, i64, i64, i64, ptr, ptr, %struct.ticker_geom_s, i8, %struct.tsd_binshards_s, %struct.tsd_link_t, i8, %struct.peak_s, %struct.activity_callback_thunk_s, %struct.tcache_slow_s, %struct.rtree_ctx_s, %struct.atomic_u8_t, i64, i64, i64, i64, %struct.tcache_s, %struct.witness_tsd_s }
%struct.ticker_geom_s = type { i32, i32 }
%struct.tsd_link_t = type { ptr, ptr }
%struct.peak_s = type { i64, i64 }
%struct.activity_callback_thunk_s = type { ptr, ptr }
%struct.tcache_slow_s = type { %struct.anon.10, %struct.cache_bin_array_descriptor_s, ptr, i32, %struct.nstime_t, i32, i32, i32, [36 x %struct.cache_bin_fill_ctl_s], [36 x i8], [36 x i8], ptr, ptr }
%struct.anon.10 = type { ptr, ptr }
%struct.cache_bin_fill_ctl_s = type { i8, i8 }
%struct.atomic_u8_t = type { i8 }
%struct.witness_tsd_s = type { %struct.witness_list_t, i8 }
%struct.witness_list_t = type { ptr }

@je_arena_bin_offsets = hidden global [36 x i32] zeroinitializer, align 16
@je_bin_info_nbatched_sizes = external global i32, align 4

; Function Attrs: alwaysinline nounwind uwtable
define internal ptr @tsd_arenap_get_unsafe(ptr noundef %0) #4 {
  %2 = alloca ptr, align 8
  store ptr %0, ptr %2, align 8, !tbaa !174
  %3 = load ptr, ptr %2, align 8, !tbaa !174
  %4 = getelementptr inbounds nuw %struct.tsd_s, ptr %3, i32 0, i32 21
  ret ptr %4
}

; Function Attrs: inlinehint nounwind uwtable
define internal zeroext i1 @arena_bin_has_batch(i32 noundef %0) #3 {
  %2 = alloca i32, align 4
  store i32 %0, ptr %2, align 4, !tbaa !17
  %3 = load i32, ptr %2, align 4, !tbaa !17
  %4 = load i32, ptr @je_bin_info_nbatched_sizes, align 4, !tbaa !17
  %5 = icmp ult i32 %3, %4
  ret i1 %5
}

; Function Attrs: alwaysinline nounwind uwtable
define internal ptr @tsd_binshardsp_get_unsafe(ptr noundef %0) #4 {
  %2 = alloca ptr, align 8
  store ptr %0, ptr %2, align 8, !tbaa !174
  %3 = load ptr, ptr %2, align 8, !tbaa !174
  %4 = getelementptr inbounds nuw %struct.tsd_s, ptr %3, i32 0, i32 24
  ret ptr %4
}

; Function Attrs: alwaysinline nounwind uwtable
define internal zeroext i8 @tsd_state_get(ptr noundef %0) #4 {
  %2 = alloca ptr, align 8
  store ptr %0, ptr %2, align 8, !tbaa !174
  %3 = load ptr, ptr %2, align 8, !tbaa !174
  %4 = getelementptr inbounds nuw %struct.tsd_s, ptr %3, i32 0, i32 31
  %5 = load i8, ptr %4, align 8, !tbaa !215
  ret i8 %5
}

; Function Attrs: alwaysinline nounwind uwtable
define internal ptr @tsd_arenap_get(ptr noundef %0) #4 {
  %2 = alloca ptr, align 8
  %3 = alloca i8, align 1
  store ptr %0, ptr %2, align 8, !tbaa !174
  call void @llvm.lifetime.start.p0(i64 1, ptr %3) #12
  %4 = load ptr, ptr %2, align 8, !tbaa !174
  %5 = call zeroext i8 @tsd_state_get(ptr noundef %4)
  store i8 %5, ptr %3, align 1, !tbaa !215
  br label %6

6:                                                ; preds = %1
  br label %7

7:                                                ; preds = %6
  br label %8

8:                                                ; preds = %7
  %9 = load ptr, ptr %2, align 8, !tbaa !174
  %10 = call ptr @tsd_arenap_get_unsafe(ptr noundef %9)
  call void @llvm.lifetime.end.p0(i64 1, ptr %3) #12
  ret ptr %10
}

; Function Attrs: inlinehint nounwind uwtable
define internal ptr @arena_get_bin(ptr noundef %0, i32 noundef %1, i32 noundef %2) #3 {
  %4 = alloca ptr, align 8
  %5 = alloca i32, align 4
  %6 = alloca i32, align 4
  %7 = alloca ptr, align 8
  %8 = alloca ptr, align 8
  store ptr %0, ptr %4, align 8, !tbaa !9
  store i32 %1, ptr %5, align 4, !tbaa !17
  store i32 %2, ptr %6, align 4, !tbaa !17
  call void @llvm.lifetime.start.p0(i64 8, ptr %7) #12
  %9 = load ptr, ptr %4, align 8, !tbaa !9
  %10 = load i32, ptr %5, align 4, !tbaa !17
  %11 = zext i32 %10 to i64
  %12 = getelementptr inbounds nuw [36 x i32], ptr @je_arena_bin_offsets, i64 0, i64 %11
  %13 = load i32, ptr %12, align 4, !tbaa !17
  %14 = zext i32 %13 to i64
  %15 = getelementptr inbounds nuw i8, ptr %9, i64 %14
  store ptr %15, ptr %7, align 8, !tbaa !140
  call void @llvm.lifetime.start.p0(i64 8, ptr %8) #12
  %16 = load i32, ptr %5, align 4, !tbaa !17
  %17 = call zeroext i1 @arena_bin_has_batch(i32 noundef %16)
  br i1 %17, label %18, label %23

18:                                               ; preds = %3
  %19 = load ptr, ptr %7, align 8, !tbaa !140
  %20 = load i32, ptr %6, align 4, !tbaa !17
  %21 = zext i32 %20 to i64
  %22 = getelementptr inbounds nuw %struct.bin_with_batch_s, ptr %19, i64 %21
  store ptr %22, ptr %8, align 8, !tbaa !140
  br label %28

23:                                               ; preds = %3
  %24 = load ptr, ptr %7, align 8, !tbaa !140
  %25 = load i32, ptr %6, align 4, !tbaa !17
  %26 = zext i32 %25 to i64
  %27 = getelementptr inbounds nuw %struct.bin_s, ptr %24, i64 %26
  store ptr %27, ptr %8, align 8, !tbaa !140
  br label %28

28:                                               ; preds = %23, %18
  br label %29

29:                                               ; preds = %28
  br label %30

30:                                               ; preds = %29
  br label %31

31:                                               ; preds = %30
  %32 = load ptr, ptr %8, align 8, !tbaa !140
  call void @llvm.lifetime.end.p0(i64 8, ptr %8) #12
  call void @llvm.lifetime.end.p0(i64 8, ptr %7) #12
  ret ptr %32
}

; Function Attrs: alwaysinline nounwind uwtable
define internal ptr @tsd_binshardsp_get(ptr noundef %0) #4 {
  %2 = alloca ptr, align 8
  %3 = alloca i8, align 1
  store ptr %0, ptr %2, align 8, !tbaa !174
  call void @llvm.lifetime.start.p0(i64 1, ptr %3) #12
  %4 = load ptr, ptr %2, align 8, !tbaa !174
  %5 = call zeroext i8 @tsd_state_get(ptr noundef %4)
  store i8 %5, ptr %3, align 1, !tbaa !215
  br label %6

6:                                                ; preds = %1
  br label %7

7:                                                ; preds = %6
  br label %8

8:                                                ; preds = %7
  %9 = load ptr, ptr %2, align 8, !tbaa !174
  %10 = call ptr @tsd_binshardsp_get_unsafe(ptr noundef %9)
  call void @llvm.lifetime.end.p0(i64 1, ptr %3) #12
  ret ptr %10
}

; Function Attrs: alwaysinline nounwind uwtable
define internal ptr @tsd_arena_get(ptr noundef %0) #4 {
  %2 = alloca ptr, align 8
  store ptr %0, ptr %2, align 8, !tbaa !174
  %3 = load ptr, ptr %2, align 8, !tbaa !174
  %4 = call ptr @tsd_arenap_get(ptr noundef %3)
  %5 = load ptr, ptr %4, align 8, !tbaa !9
  ret ptr %5
}

; Function Attrs: alwaysinline nounwind uwtable
define internal ptr @tsdn_tsd(ptr noundef %0) #4 {
  %2 = alloca ptr, align 8
  store ptr %0, ptr %2, align 8, !tbaa !4
  br label %3

3:                                                ; preds = %1
  br label %4

4:                                                ; preds = %3
  %5 = load ptr, ptr %2, align 8, !tbaa !4
  %6 = getelementptr inbounds nuw %struct.tsdn_s, ptr %5, i32 0, i32 0
  ret ptr %6
}

; Function Attrs: alwaysinline nounwind uwtable
define internal zeroext i1 @tsdn_null(ptr noundef %0) #4 {
  %2 = alloca ptr, align 8
  store ptr %0, ptr %2, align 8, !tbaa !4
  %3 = load ptr, ptr %2, align 8, !tbaa !4
  %4 = icmp eq ptr %3, null
  ret i1 %4
}

; Function Attrs: nounwind uwtable
define hidden ptr @je_arena_bin_choose(ptr noundef %0, ptr noundef %1, i32 noundef %2, ptr noundef %3) #0 {
  %5 = alloca ptr, align 8
  %6 = alloca ptr, align 8
  %7 = alloca i32, align 4
  %8 = alloca ptr, align 8
  %9 = alloca i32, align 4
  store ptr %0, ptr %5, align 8, !tbaa !4
  store ptr %1, ptr %6, align 8, !tbaa !9
  store i32 %2, ptr %7, align 4, !tbaa !17
  store ptr %3, ptr %8, align 8, !tbaa !11
  call void @llvm.lifetime.start.p0(i64 4, ptr %9) #12
  %10 = load ptr, ptr %5, align 8, !tbaa !4
  %11 = call zeroext i1 @tsdn_null(ptr noundef %10)
  br i1 %11, label %17, label %12

12:                                               ; preds = %4
  %13 = load ptr, ptr %5, align 8, !tbaa !4
  %14 = call ptr @tsdn_tsd(ptr noundef %13)
  %15 = call ptr @tsd_arena_get(ptr noundef %14)
  %16 = icmp eq ptr %15, null
  br i1 %16, label %17, label %18

17:                                               ; preds = %12, %4
  store i32 0, ptr %9, align 4, !tbaa !17
  br label %28

18:                                               ; preds = %12
  %19 = load ptr, ptr %5, align 8, !tbaa !4
  %20 = call ptr @tsdn_tsd(ptr noundef %19)
  %21 = call ptr @tsd_binshardsp_get(ptr noundef %20)
  %22 = getelementptr inbounds nuw %struct.tsd_binshards_s, ptr %21, i32 0, i32 0
  %23 = load i32, ptr %7, align 4, !tbaa !17
  %24 = zext i32 %23 to i64
  %25 = getelementptr inbounds nuw [36 x i8], ptr %22, i64 0, i64 %24
  %26 = load i8, ptr %25, align 1, !tbaa !215
  %27 = zext i8 %26 to i32
  store i32 %27, ptr %9, align 4, !tbaa !17
  br label %28

28:                                               ; preds = %18, %17
  br label %29

29:                                               ; preds = %28
  br label %30

30:                                               ; preds = %29
  br label %31

31:                                               ; preds = %30
  %32 = load ptr, ptr %8, align 8, !tbaa !11
  %33 = icmp ne ptr %32, null
  br i1 %33, label %34, label %37

34:                                               ; preds = %31
  %35 = load i32, ptr %9, align 4, !tbaa !17
  %36 = load ptr, ptr %8, align 8, !tbaa !11
  store i32 %35, ptr %36, align 4, !tbaa !17
  br label %37

37:                                               ; preds = %34, %31
  %38 = load ptr, ptr %6, align 8, !tbaa !9
  %39 = load i32, ptr %7, align 4, !tbaa !17
  %40 = load i32, ptr %9, align 4, !tbaa !17
  %41 = call ptr @arena_get_bin(ptr noundef %38, i32 noundef %39, i32 noundef %40)
  call void @llvm.lifetime.end.p0(i64 4, ptr %9) #12
  ret ptr %41
}